Certificate:
    Data:
        Version: 3 (0x2)
        Serial Number: 1048605 (0x10001d)
    Signature Algorithm: sha1WithRSAEncryption
        Issuer: C=AU, ST=Victoria, L=Melbourne, O=Percepscion Pty. Ltd., OU=intelligent.li, CN=Pscion Root CA/emailAddress=support@percepscion.com
        Validity
            Not Before: Jun 20 05:09:53 2013 GMT
            Not After : Jun 18 05:09:53 2023 GMT
        Subject: C=AU, ST=Victoria, L=Melbourne, O=Percepscion Pty. Ltd., OU=intelligent.li, CN=3a1049a9-dd36-40bf-bd55-67b2ff7d2428
        Subject Public Key Info:
            Public Key Algorithm: rsaEncryption
                Public-Key: (1024 bit)
                Modulus:
                    00:ce:8d:5a:8d:11:b2:f9:8d:23:ff:3a:5e:d8:18:
                    f9:f3:ca:68:1e:58:43:64:60:cf:1e:f3:1c:1a:79:
                    01:df:35:99:22:93:32:36:14:11:88:f9:55:1b:c4:
                    54:8e:4b:e8:9c:c9:3a:40:47:f8:5b:b8:2c:e5:cf:
                    67:06:02:ec:2b:91:2c:1b:dd:d5:a8:6b:87:b9:22:
                    4d:21:3b:ce:cc:0b:cc:0d:0d:49:a0:f6:ec:70:23:
                    a2:11:ba:fe:64:aa:9d:2f:39:04:e7:05:ee:b0:74:
                    00:8b:b7:52:43:d8:cd:de:96:b2:52:58:7c:de:4d:
                    df:2b:d7:03:76:8e:95:74:31
                Exponent: 65537 (0x10001)
        X509v3 extensions:
            X509v3 Basic Constraints: 
                CA:FALSE
            Netscape Comment: 
                Easy-RSA Generated Certificate
            X509v3 Subject Key Identifier: 
                34:06:5E:48:DB:89:13:23:D8:05:0D:55:C3:5C:E9:76:D1:F1:1D:2B
            X509v3 Authority Key Identifier: 
                keyid:E6:64:13:D9:A7:6C:C7:7B:EE:95:3E:D3:04:C8:13:F3:CE:FC:E8:2E
                DirName:/C=AU/ST=Victoria/L=Melbourne/O=Percepscion Pty. Ltd./OU=intelligent.li/CN=Pscion Root CA/emailAddress=support@percepscion.com
                serial:94:A8:B6:4E:77:54:E0:94

            X509v3 Extended Key Usage: 
                TLS Web Client Authentication
            X509v3 Key Usage: 
                Digital Signature
    Signature Algorithm: sha1WithRSAEncryption
         5a:6d:3a:8a:be:6e:f7:48:ff:7e:b2:45:91:c8:75:9b:10:7d:
         95:5b:a7:f1:bc:87:2d:78:a0:7d:6d:21:08:3a:e7:83:21:be:
         d4:5a:97:c2:62:19:38:c9:17:08:3b:89:82:9c:76:d6:44:68:
         5c:25:4a:0a:5e:6c:4b:d3:64:62:c3:a5:cb:e7:53:07:62:56:
         cb:bf:56:b2:c4:fd:a0:43:32:95:a5:82:2c:50:3a:1b:25:92:
         85:1c:59:d4:f1:22:e1:e7:21:0f:f6:c3:67:41:52:de:4b:37:
         f1:6e:cc:d2:dd:d5:8a:1f:16:90:c7:49:71:e0:a4:1c:44:24:
         26:87
-----BEGIN CERTIFICATE-----
MIIEKzCCA5SgAwIBAgIDEAAdMA0GCSqGSIb3DQEBBQUAMIGuMQswCQYDVQQGEwJB
VTERMA8GA1UECAwIVmljdG9yaWExEjAQBgNVBAcMCU1lbGJvdXJuZTEeMBwGA1UE
CgwVUGVyY2Vwc2Npb24gUHR5LiBMdGQuMRcwFQYDVQQLDA5pbnRlbGxpZ2VudC5s
aTEXMBUGA1UEAwwOUHNjaW9uIFJvb3QgQ0ExJjAkBgkqhkiG9w0BCQEWF3N1cHBv
cnRAcGVyY2Vwc2Npb24uY29tMB4XDTEzMDYyMDA1MDk1M1oXDTIzMDYxODA1MDk1
M1owgZwxCzAJBgNVBAYTAkFVMREwDwYDVQQIEwhWaWN0b3JpYTESMBAGA1UEBxMJ
TWVsYm91cm5lMR4wHAYDVQQKExVQZXJjZXBzY2lvbiBQdHkuIEx0ZC4xFzAVBgNV
BAsTDmludGVsbGlnZW50LmxpMS0wKwYDVQQDEyQzYTEwNDlhOS1kZDM2LTQwYmYt
YmQ1NS02N2IyZmY3ZDI0MjgwgZ8wDQYJKoZIhvcNAQEBBQADgY0AMIGJAoGBAM6N
Wo0RsvmNI/86XtgY+fPKaB5YQ2Rgzx7zHBp5Ad81mSKTMjYUEYj5VRvEVI5L6JzJ
OkBH+Fu4LOXPZwYC7CuRLBvd1ahrh7kiTSE7zswLzA0NSaD27HAjohG6/mSqnS85
BOcF7rB0AIu3UkPYzd6WslJYfN5N3yvXA3aOlXQxAgMBAAGjggFlMIIBYTAJBgNV
HRMEAjAAMC0GCWCGSAGG+EIBDQQgFh5FYXN5LVJTQSBHZW5lcmF0ZWQgQ2VydGlm
aWNhdGUwHQYDVR0OBBYEFDQGXkjbiRMj2AUNVcNc6XbR8R0rMIHjBgNVHSMEgdsw
gdiAFOZkE9mnbMd77pU+0wTIE/PO/OguoYG0pIGxMIGuMQswCQYDVQQGEwJBVTER
MA8GA1UECAwIVmljdG9yaWExEjAQBgNVBAcMCU1lbGJvdXJuZTEeMBwGA1UECgwV
UGVyY2Vwc2Npb24gUHR5LiBMdGQuMRcwFQYDVQQLDA5pbnRlbGxpZ2VudC5saTEX
MBUGA1UEAwwOUHNjaW9uIFJvb3QgQ0ExJjAkBgkqhkiG9w0BCQEWF3N1cHBvcnRA
cGVyY2Vwc2Npb24uY29tggkAlKi2TndU4JQwEwYDVR0lBAwwCgYIKwYBBQUHAwIw
CwYDVR0PBAQDAgeAMA0GCSqGSIb3DQEBBQUAA4GBAFptOoq+bvdI/36yRZHIdZsQ
fZVbp/G8hy14oH1tIQg654MhvtRal8JiGTjJFwg7iYKcdtZEaFwlSgpebEvTZGLD
pcvnUwdiVsu/VrLE/aBDMpWlgixQOhslkoUcWdTxIuHnIQ/2w2dBUt5LN/FuzNLd
1YofFpDHSXHgpBxEJCaH
-----END CERTIFICATE-----
-----BEGIN PRIVATE KEY-----
MIICdgIBADANBgkqhkiG9w0BAQEFAASCAmAwggJcAgEAAoGBAM6NWo0RsvmNI/86
XtgY+fPKaB5YQ2Rgzx7zHBp5Ad81mSKTMjYUEYj5VRvEVI5L6JzJOkBH+Fu4LOXP
ZwYC7CuRLBvd1ahrh7kiTSE7zswLzA0NSaD27HAjohG6/mSqnS85BOcF7rB0AIu3
UkPYzd6WslJYfN5N3yvXA3aOlXQxAgMBAAECgYBJEzVgB0z8gPSlTW9UoLF9kLR5
V9yv3JgqaPQeYYVKBNpioxT2kO8LOLrlkfYgSbbIEWEscMnrGSO5QkE+nTYUKQbp
NacZYCwHbUV9lcvAa1X578i9XZDVxB13ywaM2+8zdpe3uVue/Uvhf2s1qCDk0luw
0XsvdU8GXyuYdXAw4QJBAOzF7KzN6zj0UuhqlliGEkofB9GOQGQSdZloVRn3cJrK
CdyWgHjkBzuSy8+ZgW/0i9sSIUJWGE0d+2aNYp7CjwUCQQDfUzDiuRe4jjyK32W7
MKGnG0Nlyo6iSOfIFiQlNT03EHmhHcCoKnpOuOMLuuleuqmXQCSTNBQlj3xKMWfy
0eA9AkEAuyTVpOA9g47Z2QomO2H9IsjUDTY6ft54RQDKAvQo9K+si8YJVYQmk1e7
8CKMxEiuIkF6OEyEeK+x/aTSxllRYQJASTITC7xuseasoTenODswQH0HEg3Zwgbz
MPlQz4ErlyinNM9znaqOe87NW8LfSlUT0KcNVdHz6Hum2Qpob4WqYQJAIu/kCUYP
CfEWFszxBFxI4+pqls1ME6CTXAN9/BQnCYcjtRN89iJtLskdf8OoiLDoqKH/kLb/
hrF+YW5+1BUuug==
-----END PRIVATE KEY-----
