Certificate:
    Data:
        Version: 3 (0x2)
        Serial Number: 1048609 (0x100021)
    Signature Algorithm: sha1WithRSAEncryption
        Issuer: C=AU, ST=Victoria, L=Melbourne, O=Percepscion Pty. Ltd., OU=intelligent.li, CN=Pscion Root CA/emailAddress=support@percepscion.com
        Validity
            Not Before: Jun 20 05:10:01 2013 GMT
            Not After : Jun 18 05:10:01 2023 GMT
        Subject: C=AU, ST=Victoria, L=Melbourne, O=Percepscion Pty. Ltd., OU=intelligent.li, CN=193dc58e-367c-4e45-947a-c7ec3d4a3014
        Subject Public Key Info:
            Public Key Algorithm: rsaEncryption
                Public-Key: (1024 bit)
                Modulus:
                    00:cf:99:fc:67:72:42:73:08:9a:14:19:e5:27:9b:
                    e6:72:24:d9:70:20:14:08:a0:5b:75:6e:08:dd:36:
                    b8:31:8e:2b:fe:f7:61:4a:82:be:38:f7:bd:36:cf:
                    dd:52:b0:4d:be:ef:8f:2c:e1:83:f6:12:4c:5a:98:
                    e3:8c:15:83:83:ff:5b:45:a6:62:23:5e:3d:98:1a:
                    c0:f8:b5:54:25:0c:2d:69:0c:b5:d6:06:6a:39:40:
                    93:da:82:a4:c8:b9:c4:6a:31:bc:00:78:cf:e4:19:
                    89:ea:b8:7e:ed:49:d9:37:49:25:7d:e8:25:5b:90:
                    b3:a0:12:99:66:f3:67:1c:1b
                Exponent: 65537 (0x10001)
        X509v3 extensions:
            X509v3 Basic Constraints: 
                CA:FALSE
            Netscape Comment: 
                Easy-RSA Generated Certificate
            X509v3 Subject Key Identifier: 
                71:80:C5:AB:4B:7B:06:73:BD:27:7C:82:20:A6:B2:1D:C9:BD:6E:A2
            X509v3 Authority Key Identifier: 
                keyid:E6:64:13:D9:A7:6C:C7:7B:EE:95:3E:D3:04:C8:13:F3:CE:FC:E8:2E
                DirName:/C=AU/ST=Victoria/L=Melbourne/O=Percepscion Pty. Ltd./OU=intelligent.li/CN=Pscion Root CA/emailAddress=support@percepscion.com
                serial:94:A8:B6:4E:77:54:E0:94

            X509v3 Extended Key Usage: 
                TLS Web Client Authentication
            X509v3 Key Usage: 
                Digital Signature
    Signature Algorithm: sha1WithRSAEncryption
         6b:9f:8a:19:d9:0f:0c:a7:91:7b:ec:0f:49:85:15:4f:aa:79:
         ea:05:8e:49:99:bc:6c:2a:6e:97:24:45:fb:27:76:b4:a6:7e:
         69:eb:05:32:63:6b:da:27:2c:e0:b6:c7:94:7b:be:86:3a:35:
         61:51:95:f4:cd:03:20:83:ca:56:fc:fd:98:2b:63:e8:69:6f:
         15:6f:43:de:f5:09:c8:ef:8d:20:56:37:d5:01:50:da:97:f7:
         09:c4:23:76:69:e8:6f:b8:79:3d:26:74:66:1d:70:3b:b1:3c:
         79:f5:79:54:5f:79:11:66:7a:58:a4:30:d8:a7:89:eb:5b:7d:
         96:ad
-----BEGIN CERTIFICATE-----
MIIEKzCCA5SgAwIBAgIDEAAhMA0GCSqGSIb3DQEBBQUAMIGuMQswCQYDVQQGEwJB
VTERMA8GA1UECAwIVmljdG9yaWExEjAQBgNVBAcMCU1lbGJvdXJuZTEeMBwGA1UE
CgwVUGVyY2Vwc2Npb24gUHR5LiBMdGQuMRcwFQYDVQQLDA5pbnRlbGxpZ2VudC5s
aTEXMBUGA1UEAwwOUHNjaW9uIFJvb3QgQ0ExJjAkBgkqhkiG9w0BCQEWF3N1cHBv
cnRAcGVyY2Vwc2Npb24uY29tMB4XDTEzMDYyMDA1MTAwMVoXDTIzMDYxODA1MTAw
MVowgZwxCzAJBgNVBAYTAkFVMREwDwYDVQQIEwhWaWN0b3JpYTESMBAGA1UEBxMJ
TWVsYm91cm5lMR4wHAYDVQQKExVQZXJjZXBzY2lvbiBQdHkuIEx0ZC4xFzAVBgNV
BAsTDmludGVsbGlnZW50LmxpMS0wKwYDVQQDEyQxOTNkYzU4ZS0zNjdjLTRlNDUt
OTQ3YS1jN2VjM2Q0YTMwMTQwgZ8wDQYJKoZIhvcNAQEBBQADgY0AMIGJAoGBAM+Z
/GdyQnMImhQZ5Seb5nIk2XAgFAigW3VuCN02uDGOK/73YUqCvjj3vTbP3VKwTb7v
jyzhg/YSTFqY44wVg4P/W0WmYiNePZgawPi1VCUMLWkMtdYGajlAk9qCpMi5xGox
vAB4z+QZieq4fu1J2TdJJX3oJVuQs6ASmWbzZxwbAgMBAAGjggFlMIIBYTAJBgNV
HRMEAjAAMC0GCWCGSAGG+EIBDQQgFh5FYXN5LVJTQSBHZW5lcmF0ZWQgQ2VydGlm
aWNhdGUwHQYDVR0OBBYEFHGAxatLewZzvSd8giCmsh3JvW6iMIHjBgNVHSMEgdsw
gdiAFOZkE9mnbMd77pU+0wTIE/PO/OguoYG0pIGxMIGuMQswCQYDVQQGEwJBVTER
MA8GA1UECAwIVmljdG9yaWExEjAQBgNVBAcMCU1lbGJvdXJuZTEeMBwGA1UECgwV
UGVyY2Vwc2Npb24gUHR5LiBMdGQuMRcwFQYDVQQLDA5pbnRlbGxpZ2VudC5saTEX
MBUGA1UEAwwOUHNjaW9uIFJvb3QgQ0ExJjAkBgkqhkiG9w0BCQEWF3N1cHBvcnRA
cGVyY2Vwc2Npb24uY29tggkAlKi2TndU4JQwEwYDVR0lBAwwCgYIKwYBBQUHAwIw
CwYDVR0PBAQDAgeAMA0GCSqGSIb3DQEBBQUAA4GBAGufihnZDwynkXvsD0mFFU+q
eeoFjkmZvGwqbpckRfsndrSmfmnrBTJja9onLOC2x5R7voY6NWFRlfTNAyCDylb8
/ZgrY+hpbxVvQ971CcjvjSBWN9UBUNqX9wnEI3Zp6G+4eT0mdGYdcDuxPHn1eVRf
eRFmelikMNinietbfZat
-----END CERTIFICATE-----
-----BEGIN PRIVATE KEY-----
MIICdgIBADANBgkqhkiG9w0BAQEFAASCAmAwggJcAgEAAoGBAM+Z/GdyQnMImhQZ
5Seb5nIk2XAgFAigW3VuCN02uDGOK/73YUqCvjj3vTbP3VKwTb7vjyzhg/YSTFqY
44wVg4P/W0WmYiNePZgawPi1VCUMLWkMtdYGajlAk9qCpMi5xGoxvAB4z+QZieq4
fu1J2TdJJX3oJVuQs6ASmWbzZxwbAgMBAAECgYAm0fWn5m7UkfQ19A2s1XNHPurG
E8mLP2k60UOpEhVpdtt1Rw8TXtVxU6o3OLF7R+qR3LwaOWVyu0M54cMTK+a2jusl
C+PKRs1dnddH414I3VH43tg/7wFcj70DJmFeLPZxQWmt+wDBlz9rME4GIt52qimu
cXqs8RI4EE08A+MwMQJBAOrECn/psJvPHn54az4iTDOMxDDMWGqgpHXCjuER5XV9
/nCF0X2k4ECRgCzWICn+p65jjts7Gskcy5Sg7/+uzWkCQQDiYPYGw4V8JWUib/9c
tWIKY7n2EClghJesQ+WuuSqeO6Mta5bu/rePKvWiFxaYRNB5WR5soMFWqFUjo3Aj
uDjjAkEAkyjqD/5z12dAjTR8vQkQzSuK+6/MKKKkFLEtkQX/2ONusCgiBmlorPDH
8NMUfF6Fy7nana/x/WkQcA1mA9cWKQJAC6MiYpygew5NEaUiQnjMjm4r/Bs+lUib
p25iG0ZHi5TTQZ17R9PuSbzSnb+EGNXIxcQwDTOCXNsQbWGUfTGWMwJAbzcBTD/E
DPmJ29bwbFtHyYd43vCo20jUYWQvYWBzusp3zg1IETxwo0/yZAmA5ClNLUz/JS75
8Whs+1lnXoHdOw==
-----END PRIVATE KEY-----
